; Function Attrs: mustprogress uwtable
define void @_ZN5arrow26default_cpu_memory_managerEv(ptr noalias nocapture writeonly sret(%"class.std::shared_ptr.14") align 8 %agg.result) local_unnamed_addr #4 personality ptr @__gxx_personality_v0 {
entry:
  %ref.tmp = alloca %"class.std::shared_ptr", align 8
  %0 = load atomic i8, ptr @_ZGVZN5arrow26default_cpu_memory_managerEvE8instance acquire, align 8
  %guard.uninitialized = icmp eq i8 %0, 0
  br i1 %guard.uninitialized, label %init.check, label %init.end, !prof !19

init.check:                                       ; preds = %entry
  %1 = tail call i32 @__cxa_guard_acquire(ptr nonnull @_ZGVZN5arrow26default_cpu_memory_managerEvE8instance) #18
  %tobool.not = icmp eq i32 %1, 0
  br i1 %tobool.not, label %init.end, label %init

init:                                             ; preds = %init.check
  invoke void @_ZN5arrow9CPUDevice8InstanceEv(ptr nonnull sret(%"class.std::shared_ptr") align 8 %ref.tmp)
          to label %invoke.cont unwind label %lpad

invoke.cont:                                      ; preds = %init
  %call = invoke noundef ptr @_ZN5arrow19default_memory_poolEv()
          to label %invoke.cont2 unwind label %lpad1

invoke.cont2:                                     ; preds = %invoke.cont
  invoke void @_ZN5arrow16CPUMemoryManager4MakeERKSt10shared_ptrINS_6DeviceEEPNS_10MemoryPoolE(ptr nonnull sret(%"class.std::shared_ptr.14") align 8 @_ZZN5arrow26default_cpu_memory_managerEvE8instance, ptr noundef nonnull align 8 dereferenceable(16) %ref.tmp, ptr noundef %call)
          to label %invoke.cont3 unwind label %lpad1

invoke.cont3:                                     ; preds = %invoke.cont2
  call void @_ZNSt10shared_ptrIN5arrow6DeviceEED2Ev(ptr noundef nonnull align 8 dereferenceable(16) %ref.tmp) #18
  %2 = call i32 @__cxa_atexit(ptr nonnull @_ZNSt10shared_ptrIN5arrow13MemoryManagerEED2Ev, ptr nonnull @_ZZN5arrow26default_cpu_memory_managerEvE8instance, ptr nonnull @__dso_handle) #18
  call void @__cxa_guard_release(ptr nonnull @_ZGVZN5arrow26default_cpu_memory_managerEvE8instance) #18
  br label %init.end

init.end:                                         ; preds = %invoke.cont3, %init.check, %entry
  %3 = load <2 x ptr>, ptr @_ZZN5arrow26default_cpu_memory_managerEvE8instance, align 16
  store <2 x ptr> %3, ptr %agg.result, align 8
  %4 = extractelement <2 x ptr> %3, i64 1
  %cmp.not.i.i.i = icmp eq ptr %4, null
  br i1 %cmp.not.i.i.i, label %_ZNSt10shared_ptrIN5arrow13MemoryManagerEEC2ERKS2_.exit, label %if.then.i.i.i

if.then.i.i.i:                                    ; preds = %init.end
  %_M_use_count.i.i.i.i = getelementptr inbounds i8, ptr %4, i64 8
  %5 = load i8, ptr @__libc_single_threaded, align 1
  %tobool.i.i.not.i.i.i.i = icmp eq i8 %5, 0
  br i1 %tobool.i.i.not.i.i.i.i, label %if.else.i.i.i.i.i, label %if.then.i.i.i.i.i

if.then.i.i.i.i.i:                                ; preds = %if.then.i.i.i
  %6 = load i32, ptr %_M_use_count.i.i.i.i, align 4
  %add.i.i.i.i.i = add nsw i32 %6, 1
  store i32 %add.i.i.i.i.i, ptr %_M_use_count.i.i.i.i, align 4
  br label %_ZNSt10shared_ptrIN5arrow13MemoryManagerEEC2ERKS2_.exit

if.else.i.i.i.i.i:                                ; preds = %if.then.i.i.i
  %7 = atomicrmw volatile add ptr %_M_use_count.i.i.i.i, i32 1 acq_rel, align 4
  br label %_ZNSt10shared_ptrIN5arrow13MemoryManagerEEC2ERKS2_.exit

_ZNSt10shared_ptrIN5arrow13MemoryManagerEEC2ERKS2_.exit: ; preds = %init.end, %if.then.i.i.i.i.i, %if.else.i.i.i.i.i
  ret void

lpad:                                             ; preds = %init
  %8 = landingpad { ptr, i32 }
          cleanup
  br label %ehcleanup

lpad1:                                            ; preds = %invoke.cont2, %invoke.cont
  %9 = landingpad { ptr, i32 }
          cleanup
  call void @_ZNSt10shared_ptrIN5arrow6DeviceEED2Ev(ptr noundef nonnull align 8 dereferenceable(16) %ref.tmp) #18
  br label %ehcleanup

ehcleanup:                                        ; preds = %lpad1, %lpad
  %.pn = phi { ptr, i32 } [ %9, %lpad1 ], [ %8, %lpad ]
  call void @__cxa_guard_abort(ptr nonnull @_ZGVZN5arrow26default_cpu_memory_managerEvE8instance) #18
  resume { ptr, i32 } %.pn
}